target datalayout = "e-m:e-p270:32:32-p271:32:32-p272:64:64-i64:64-i128:128-f80:128-n8:16:32:64-S128"
target triple = "x86_64-unknown-linux-gnu"

%class.linear_equation = type { i32, ptr, ptr, ptr }
%class.linear_equation_manager = type { ptr, ptr, %class.numeral_buffer, %class.numeral_buffer, %class.svector.0, %class.svector.2 }
%class.numeral_buffer = type { ptr, %class.svector }
%class.svector = type { %class.vector }
%class.vector = type { ptr }
%class.svector.0 = type { %class.vector.1 }
%class.vector.1 = type { ptr }
%class.svector.2 = type { %class.vector.3 }
%class.vector.3 = type { ptr }
%class.mpz = type { i32, i8, ptr }

; Function Attrs: mustprogress uwtable
define linkonce_odr hidden void @_ZN11mpz_managerILb0EE3delER3mpz(ptr noundef nonnull align 8 dereferenceable(600) %this, ptr noundef nonnull align 8 dereferenceable(16) %a) #5 comdat align 2 {
entry:
  %this.addr = alloca ptr, align 8
  %a.addr = alloca ptr, align 8
  store ptr %this, ptr %this.addr, align 8
  store ptr %a, ptr %a.addr, align 8
  %this1 = load ptr, ptr %this.addr, align 8
  %0 = load ptr, ptr %a.addr, align 8
  call void @_ZN11mpz_managerILb0EE3delEPS0_R3mpz(ptr noundef %this1, ptr noundef nonnull align 8 dereferenceable(16) %0)
  ret void
}

; Function Attrs: mustprogress nounwind uwtable
define linkonce_odr hidden noundef i32 @_ZN15linear_equation12get_obj_sizeEj(i32 noundef %sz) #4 comdat align 2 {
entry:
  %sz.addr = alloca i32, align 4
  store i32 %sz, ptr %sz.addr, align 4
  %0 = load i32, ptr %sz.addr, align 4
  %conv = zext i32 %0 to i64
  %mul = mul i64 %conv, 28
  %add = add i64 32, %mul
  %conv1 = trunc i64 %add to i32
  ret i32 %conv1
}

; Function Attrs: mustprogress uwtable
define linkonce_odr hidden void @_ZN11mpq_managerILb0EE3delER3mpz(ptr noundef nonnull align 8 dereferenceable(728) %this, ptr noundef nonnull align 8 dereferenceable(16) %a) #5 comdat align 2 {
entry:
  %this.addr = alloca ptr, align 8
  %a.addr = alloca ptr, align 8
  store ptr %this, ptr %this.addr, align 8
  store ptr %a, ptr %a.addr, align 8
  %this1 = load ptr, ptr %this.addr, align 8
  %0 = load ptr, ptr %a.addr, align 8
  call void @_ZN11mpz_managerILb0EE3delER3mpz(ptr noundef nonnull align 8 dereferenceable(600) %this1, ptr noundef nonnull align 8 dereferenceable(16) %0)
  ret void
}

; Function Attrs: mustprogress uwtable
define hidden void @_ZN23linear_equation_manager3delEP15linear_equation(ptr noundef nonnull align 8 dereferenceable(64) %this, ptr noundef %eq) #5 align 2 {
entry:
  %this.addr = alloca ptr, align 8
  %eq.addr = alloca ptr, align 8
  %i = alloca i32, align 4
  %obj_sz = alloca i32, align 4
  store ptr %this, ptr %this.addr, align 8
  store ptr %eq, ptr %eq.addr, align 8
  %this1 = load ptr, ptr %this.addr, align 8
  store i32 0, ptr %i, align 4
  br label %for.cond

for.cond:                                         ; preds = %for.inc, %entry
  %0 = load i32, ptr %i, align 4
  %1 = load ptr, ptr %eq.addr, align 8
  %m_size = getelementptr inbounds %class.linear_equation, ptr %1, i32 0, i32 0
  %2 = load i32, ptr %m_size, align 8
  %cmp = icmp ult i32 %0, %2
  br i1 %cmp, label %for.body, label %for.end

for.body:                                         ; preds = %for.cond
  %m = getelementptr inbounds %class.linear_equation_manager, ptr %this1, i32 0, i32 1
  %3 = load ptr, ptr %m, align 8
  %4 = load ptr, ptr %eq.addr, align 8
  %m_as = getelementptr inbounds %class.linear_equation, ptr %4, i32 0, i32 1
  %5 = load ptr, ptr %m_as, align 8
  %6 = load i32, ptr %i, align 4
  %idxprom = zext i32 %6 to i64
  %arrayidx = getelementptr inbounds %class.mpz, ptr %5, i64 %idxprom
  call void @_ZN11mpq_managerILb0EE3delER3mpz(ptr noundef nonnull align 8 dereferenceable(728) %3, ptr noundef nonnull align 8 dereferenceable(16) %arrayidx)
  br label %for.inc

for.inc:                                          ; preds = %for.body
  %7 = load i32, ptr %i, align 4
  %inc = add i32 %7, 1
  store i32 %inc, ptr %i, align 4
  br label %for.cond, !llvm.loop !20

for.end:                                          ; preds = %for.cond
  %8 = load ptr, ptr %eq.addr, align 8
  %m_size2 = getelementptr inbounds %class.linear_equation, ptr %8, i32 0, i32 0
  %9 = load i32, ptr %m_size2, align 8
  %call = call noundef i32 @_ZN15linear_equation12get_obj_sizeEj(i32 noundef %9)
  store i32 %call, ptr %obj_sz, align 4
  %m_allocator = getelementptr inbounds %class.linear_equation_manager, ptr %this1, i32 0, i32 0
  %10 = load ptr, ptr %m_allocator, align 8
  %11 = load i32, ptr %obj_sz, align 4
  %conv = zext i32 %11 to i64
  %12 = load ptr, ptr %eq.addr, align 8
  call void @_ZN22small_object_allocator10deallocateEmPv(ptr noundef nonnull align 8 dereferenceable(520) %10, i64 noundef %conv, ptr noundef %12)
  ret void
}