; Function Attrs: mustprogress uwtable
define hidden void @_ZN23linear_equation_manager3delEP15linear_equation(ptr nocapture noundef nonnull readonly align 8 dereferenceable(64) %this, ptr noundef %eq) local_unnamed_addr #4 align 2 {
entry:
  %0 = load i32, ptr %eq, align 8
  %cmp6.not = icmp eq i32 %0, 0
  br i1 %cmp6.not, label %for.end, label %for.body.lr.ph

for.body.lr.ph:                                   ; preds = %entry
  %m = getelementptr inbounds i8, ptr %this, i64 8
  %m_as = getelementptr inbounds i8, ptr %eq, i64 8
  br label %for.body

for.body:                                         ; preds = %for.body.lr.ph, %for.body
  %indvars.iv = phi i64 [ 0, %for.body.lr.ph ], [ %indvars.iv.next, %for.body ]
  %1 = load ptr, ptr %m, align 8
  %2 = load ptr, ptr %m_as, align 8
  %arrayidx = getelementptr inbounds %class.mpz, ptr %2, i64 %indvars.iv
  tail call void @_ZN11mpz_managerILb0EE3delEPS0_R3mpz(ptr noundef nonnull %1, ptr noundef nonnull align 8 dereferenceable(16) %arrayidx)
  %indvars.iv.next = add nuw nsw i64 %indvars.iv, 1
  %3 = load i32, ptr %eq, align 8
  %4 = zext i32 %3 to i64
  %cmp = icmp ult i64 %indvars.iv.next, %4
  br i1 %cmp, label %for.body, label %for.end.loopexit, !llvm.loop !23

for.end.loopexit:                                 ; preds = %for.body
  %5 = mul i32 %3, 28
  %6 = add i32 %5, 32
  %7 = zext i32 %6 to i64
  br label %for.end

for.end:                                          ; preds = %for.end.loopexit, %entry
  %.lcssa = phi i64 [ 32, %entry ], [ %7, %for.end.loopexit ]
  %8 = load ptr, ptr %this, align 8
  tail call void @_ZN22small_object_allocator10deallocateEmPv(ptr noundef nonnull align 8 dereferenceable(520) %8, i64 noundef %.lcssa, ptr noundef nonnull %eq)
  ret void
}